ccopy_reg
_reconstructor
p0
(cCherryConfigs
CherryConfigs
p1
c__builtin__
object
p2
Ntp3
Rp4
(dp5
S'resultsfile'
p6
S'16-15-22 11-12-15/complete.json'
p7
sS'subdir'
p8
S'16-15-22 11-12-15'
p9
sS'errorfile'
p10
S'16-15-22 11-12-15/errors.json'
p11
sS'infile'
p12
S'scrape_these.json'
p13
sS'reportfile'
p14
S'16-15-22 11-12-15/report.txt'
p15
sS'doifile'
p16
S'16-15-22 11-12-15/dois.json'
p17
sb.