ccopy_reg
_reconstructor
p0
(cCherryConfigs
CherryConfigs
p1
c__builtin__
object
p2
Ntp3
Rp4
(dp5
S'resultsfile'
p6
S'10-05-27 15-01-16/complete.json'
p7
sS'subdir'
p8
S'10-05-27 15-01-16'
p9
sS'errorfile'
p10
S'10-05-27 15-01-16/errors.json'
p11
sS'infile'
p12
S'scrape_sample.json'
p13
sS'reportfile'
p14
S'10-05-27 15-01-16/report.txt'
p15
sS'doifile'
p16
S'10-05-27 15-01-16/dois.json'
p17
sb.